(dp0
I1
(lp1
(S'Munich'
p2
S'Berlin'
p3
tp4
a(S'Hamburg'
p5
S'Amsterdam'
p6
tp7
asI2
(lp8
(S'Dublin'
p9
S'Glasgow'
p10
tp11
a(S'London'
p12
g6
tp13
asI3
(lp14
(S'Budapest'
p15
S'Belgrade'
p16
tp17
a(S'Vienna'
p18
S'Zagreb'
p19
tp20
as.