(dp0
I1
(lp1
(S'Pittsburgh'
p2
S'Urbana-Champaign'
p3
tp4
a(g2
S'Atlanta'
p5
tp6
a(S'Washington'
p7
S'Ithaca'
p8
tp9
asI2
(lp10
(S'Boulder'
p11
S'Lincoln'
p12
tp13
a(S'SaltLakeCity'
p14
S'Ann-Arbor'
p15
tp16
as.