(dp0
I1
(lp1
(S'Indianapolis'
p2
S'Nashville'
p3
tp4
a(g2
S'StLouis'
p5
tp6
asI2
(lp7
(S'Dallas'
p8
g3
tp9
a(S'NewOrleans'
p10
S'Houston'
p11
tp12
asI3
(lp13
(S'LosAngeles'
p14
S'ElPaso'
p15
tp16
a(S'SaltLakeCity'
p17
S'LasVegas'
p18
tp19
as.