(dp0
I1
(lp1
(S'Bremen'
p2
S'Hannover'
p3
tp4
a(g3
S'Hamburg'
p5
tp6
asI2
(lp7
(S'Berlin'
p8
S'Leipzig'
p9
tp10
a(g8
S'Greifswald'
p11
tp12
asI3
(lp13
(S'Karlsruhe'
p14
S'Stuttgart'
p15
tp16
a(g14
S'Mannheim'
p17
tp18
as.